target datalayout = "e-m:e-p270:32:32-p271:32:32-p272:64:64-i64:64-i128:128-f80:128-n8:16:32:64-S128"
target triple = "x86_64-pc-linux-gnu"

%struct.GDBUserState = type { i32, ptr, i32, i8, [16 x i64], i8, i32, [2 x i32], i32, i32, [128 x i8], i64 }
%union.CPUTailQ = type { %struct.QTailQLink }
%struct.QTailQLink = type { ptr, ptr }
%struct.CPUState = type { %struct.DeviceState, ptr, i32, ptr, i32, i8, i8, ptr, i8, i8, i8, i8, i8, i8, i8, i8, i32, i32, i32, i32, i64, i64, i64, [1 x %struct.__jmp_buf_tag], %struct.QemuMutex, %struct.anon.0, ptr, i32, i32, ptr, ptr, ptr, ptr, i32, i32, %union.anon, %union.anon.1, %union.anon.2, ptr, ptr, i64, i32, ptr, ptr, ptr, i32, i64, i32, i8, %struct.QemuLockCnt, ptr, i32, i32, i32, i32, i32, ptr, i8, i64, i8, i8, ptr, [0 x i8], %struct.CPUNegativeOffsetState }
%struct.DeviceState = type { %struct.Object, ptr, ptr, i8, i8, i64, i32, i8, ptr, %struct.NamedGPIOListHead, %struct.NamedClockListHead, %struct.BusStateHead, i32, i32, i32, %struct.ResettableState, ptr, %struct.MemReentrancyGuard }
%struct.Object = type { ptr, ptr, ptr, i32, ptr }
%struct.NamedGPIOListHead = type { ptr }
%struct.NamedClockListHead = type { ptr }
%struct.BusStateHead = type { ptr }
%struct.ResettableState = type { i32, i8, i8 }
%struct.MemReentrancyGuard = type { i8 }
%struct.__jmp_buf_tag = type { [8 x i64], i32, %struct.__sigset_t }
%struct.__sigset_t = type { [16 x i64] }
%struct.QemuMutex = type { %union.pthread_mutex_t, i8 }
%union.pthread_mutex_t = type { %struct.__pthread_mutex_s }
%struct.__pthread_mutex_s = type { i32, i32, i32, i32, i32, i16, i16, %struct.__pthread_internal_list }
%struct.__pthread_internal_list = type { ptr, ptr }
%struct.anon.0 = type { ptr, ptr }
%union.anon = type { %struct.QTailQLink }
%union.anon.1 = type { %struct.QTailQLink }
%union.anon.2 = type { %struct.QTailQLink }
%struct.QemuLockCnt = type { i32 }
%struct.CPUNegativeOffsetState = type { %struct.CPUTLB, ptr, i64, i64, %union.IcountDecr, i8 }
%struct.CPUTLB = type { %struct.CPUTLBCommon, [16 x %struct.CPUTLBDesc], [16 x %struct.CPUTLBDescFast] }
%struct.CPUTLBCommon = type { %struct.QemuSpin, i16, i64, i64, i64 }
%struct.QemuSpin = type { i32 }
%struct.CPUTLBDesc = type { i64, i64, i64, i64, i64, i64, [8 x %union.CPUTLBEntry], [8 x %struct.CPUTLBEntryFull], ptr }
%union.CPUTLBEntry = type { %struct.anon.3 }
%struct.anon.3 = type { i64, i64, i64, i64 }
%struct.CPUTLBEntryFull = type { i64, i64, %struct.MemTxAttrs, i8, i8, i8, [3 x i8], %union.anon.4 }
%struct.MemTxAttrs = type { i32, i8, i8, i16 }
%union.anon.4 = type { %struct.anon.5 }
%struct.anon.5 = type { i8, i8, i8 }
%struct.CPUTLBDescFast = type { i64, ptr }
%union.IcountDecr = type { i32 }

@gdbserver_user_state = internal global %struct.GDBUserState zeroinitializer, align 8
@cpus_queue = external global %union.CPUTailQ, align 8

; Function Attrs: nounwind sspstrong uwtable
define internal void @disable_gdbstub(ptr noundef %0) #0 {
  %2 = alloca ptr, align 8
  %3 = alloca ptr, align 8
  %4 = alloca ptr, align 8
  %5 = alloca ptr, align 8
  %6 = alloca ptr, align 8
  %7 = alloca ptr, align 8
  store ptr %0, ptr %2, align 8
  call void @llvm.lifetime.start.p0(i64 8, ptr %3) #14
  store ptr null, ptr %3, align 8, !annotation !4
  %8 = load i32, ptr @gdbserver_user_state, align 8
  %9 = call i32 @close(i32 noundef %8)
  store i32 -1, ptr @gdbserver_user_state, align 8
  br label %10

10:                                               ; preds = %1
  br i1 false, label %11, label %12

11:                                               ; preds = %10
  call void @qemu_build_not_reached_always() #17, !srcloc !16
  unreachable

12:                                               ; preds = %10
  call void @llvm.lifetime.start.p0(i64 8, ptr %4) #14
  store ptr null, ptr %4, align 8, !annotation !4
  %13 = load atomic i64, ptr @cpus_queue monotonic, align 8
  store i64 %13, ptr %4, align 8
  call void asm sideeffect "", "~{memory},~{dirflag},~{fpsr},~{flags}"() #14, !srcloc !17
  %14 = load ptr, ptr %4, align 8
  store ptr %14, ptr %5, align 8
  call void @llvm.lifetime.end.p0(i64 8, ptr %4) #14
  %15 = load ptr, ptr %5, align 8
  store ptr %15, ptr %3, align 8
  br label %16

16:                                               ; preds = %25, %12
  %17 = load ptr, ptr %3, align 8
  %18 = icmp ne ptr %17, null
  br i1 %18, label %19, label %31

19:                                               ; preds = %16
  %20 = load ptr, ptr %3, align 8
  call void @cpu_breakpoint_remove_all(ptr noundef %20, i32 noundef 16)
  %21 = load ptr, ptr %3, align 8
  call void @cpu_single_step(ptr noundef %21, i32 noundef 0)
  br label %22

22:                                               ; preds = %19
  br label %23

23:                                               ; preds = %22
  br i1 false, label %24, label %25

24:                                               ; preds = %23
  call void @qemu_build_not_reached_always() #17, !srcloc !18
  unreachable

25:                                               ; preds = %23
  call void @llvm.lifetime.start.p0(i64 8, ptr %6) #14
  store ptr null, ptr %6, align 8, !annotation !4
  %26 = load ptr, ptr %3, align 8
  %27 = getelementptr inbounds nuw %struct.CPUState, ptr %26, i32 0, i32 35
  %28 = load atomic i64, ptr %27 monotonic, align 16
  store i64 %28, ptr %6, align 8
  call void asm sideeffect "", "~{memory},~{dirflag},~{fpsr},~{flags}"() #14, !srcloc !19
  %29 = load ptr, ptr %6, align 8
  store ptr %29, ptr %7, align 8
  call void @llvm.lifetime.end.p0(i64 8, ptr %6) #14
  %30 = load ptr, ptr %7, align 8
  store ptr %30, ptr %3, align 8
  br label %16, !llvm.loop !20

31:                                               ; preds = %16
  %32 = load ptr, ptr %2, align 8
  call void @tb_flush(ptr noundef %32)
  call void @llvm.lifetime.end.p0(i64 8, ptr %3) #14
  ret void
}