; Function Attrs: nounwind sspstrong uwtable
define internal fastcc void @disable_gdbstub(ptr noundef %0) unnamed_addr #0 {
  %2 = load i32, ptr @gdbserver_user_state, align 8
  %3 = tail call i32 @close(i32 noundef %2) #16
  store i32 -1, ptr @gdbserver_user_state, align 8
  %4 = load atomic i64, ptr @cpus_queue monotonic, align 8
  tail call void asm sideeffect "", "~{memory},~{dirflag},~{fpsr},~{flags}"() #16, !srcloc !19
  %.not9 = icmp eq i64 %4, 0
  br i1 %.not9, label %._crit_edge, label %.lr.ph

.lr.ph:                                           ; preds = %1, %.lr.ph
  %.0.in10 = phi i64 [ %6, %.lr.ph ], [ %4, %1 ]
  %.0 = inttoptr i64 %.0.in10 to ptr
  tail call void @cpu_breakpoint_remove_all(ptr noundef nonnull %.0, i32 noundef 16) #16
  tail call void @cpu_single_step(ptr noundef nonnull %.0, i32 noundef 0) #16
  %5 = getelementptr inbounds nuw i8, ptr %.0, i64 560
  %6 = load atomic i64, ptr %5 monotonic, align 16
  tail call void asm sideeffect "", "~{memory},~{dirflag},~{fpsr},~{flags}"() #16, !srcloc !20
  %.not = icmp eq i64 %6, 0
  br i1 %.not, label %._crit_edge, label %.lr.ph, !llvm.loop !21

._crit_edge:                                      ; preds = %.lr.ph, %1
  tail call void @tb_flush(ptr noundef %0) #16
  ret void
}